target datalayout = "e-m:e-p270:32:32-p271:32:32-p272:64:64-i64:64-i128:128-f80:128-n8:16:32:64-S128"
target triple = "x86_64-pc-linux-gnu"

%struct.tls_buffer_st = type { ptr, i64, i64, i64, i64, i32, i32 }
%struct.tls_rl_record_st = type { i32, i32, i64, i64, i64, ptr, ptr, ptr, i16, [8 x i8] }
%struct.ossl_record_layer_st = type { ptr, ptr, i32, i32, i32, i32, i32, ptr, i16, ptr, ptr, ptr, i64, i32, [33 x %struct.tls_buffer_st], i64, i64, %struct.tls_buffer_st, [32 x %struct.tls_rl_record_st], i64, i64, i64, i32, ptr, i64, [8 x i8], i32, i32, i64, i32, ptr, ptr, i64, ptr, ptr, i32, i32, i32, i64, i64, i64, [64 x i8], i32, i32, i32, ptr, ptr, i32, i32, i64, ptr, ptr, %struct.dtls_bitmap_st, %struct.dtls_bitmap_st, i32, ptr, ptr, ptr, ptr, ptr, i64, ptr }
%struct.dtls_bitmap_st = type { i64, [8 x i8] }

@.str = private unnamed_addr constant [43 x i8] c"../openssl/ssl/record/methods/tls_common.c\00", align 1
@__func__.tls_default_post_process_record = private unnamed_addr constant [32 x i8] c"tls_default_post_process_record\00", align 1

; Function Attrs: nounwind uwtable
define i32 @tls_do_uncompress(ptr noundef %0, ptr noundef %1) #0 {
  %3 = alloca i32, align 4
  %4 = alloca ptr, align 8
  %5 = alloca ptr, align 8
  %6 = alloca i32, align 4
  %7 = alloca i32, align 4
  store ptr %0, ptr %4, align 8, !tbaa !16
  store ptr %1, ptr %5, align 8, !tbaa !13
  call void @llvm.lifetime.start.p0(i64 4, ptr %6) #10
  %8 = load ptr, ptr %5, align 8, !tbaa !13
  %9 = getelementptr inbounds nuw %struct.tls_rl_record_st, ptr %8, i32 0, i32 7
  %10 = load ptr, ptr %9, align 8, !tbaa !118
  %11 = icmp eq ptr %10, null
  br i1 %11, label %12, label %16

12:                                               ; preds = %2
  %13 = call noalias ptr @CRYPTO_malloc(i64 noundef 17728, ptr noundef @.str, i32 noundef 1044)
  %14 = load ptr, ptr %5, align 8, !tbaa !13
  %15 = getelementptr inbounds nuw %struct.tls_rl_record_st, ptr %14, i32 0, i32 7
  store ptr %13, ptr %15, align 8, !tbaa !118
  br label %16

16:                                               ; preds = %12, %2
  %17 = load ptr, ptr %5, align 8, !tbaa !13
  %18 = getelementptr inbounds nuw %struct.tls_rl_record_st, ptr %17, i32 0, i32 7
  %19 = load ptr, ptr %18, align 8, !tbaa !118
  %20 = icmp eq ptr %19, null
  br i1 %20, label %21, label %22

21:                                               ; preds = %16
  store i32 0, ptr %3, align 4
  store i32 1, ptr %7, align 4
  br label %51

22:                                               ; preds = %16
  %23 = load ptr, ptr %4, align 8, !tbaa !16
  %24 = getelementptr inbounds nuw %struct.ossl_record_layer_st, ptr %23, i32 0, i32 34
  %25 = load ptr, ptr %24, align 8, !tbaa !117
  %26 = load ptr, ptr %5, align 8, !tbaa !13
  %27 = getelementptr inbounds nuw %struct.tls_rl_record_st, ptr %26, i32 0, i32 7
  %28 = load ptr, ptr %27, align 8, !tbaa !118
  %29 = load ptr, ptr %5, align 8, !tbaa !13
  %30 = getelementptr inbounds nuw %struct.tls_rl_record_st, ptr %29, i32 0, i32 5
  %31 = load ptr, ptr %30, align 8, !tbaa !86
  %32 = load ptr, ptr %5, align 8, !tbaa !13
  %33 = getelementptr inbounds nuw %struct.tls_rl_record_st, ptr %32, i32 0, i32 2
  %34 = load i64, ptr %33, align 8, !tbaa !82
  %35 = trunc i64 %34 to i32
  %36 = call i32 @COMP_expand_block(ptr noundef %25, ptr noundef %28, i32 noundef 16384, ptr noundef %31, i32 noundef %35)
  store i32 %36, ptr %6, align 4, !tbaa !18
  %37 = load i32, ptr %6, align 4, !tbaa !18
  %38 = icmp slt i32 %37, 0
  br i1 %38, label %39, label %40

39:                                               ; preds = %22
  store i32 0, ptr %3, align 4
  store i32 1, ptr %7, align 4
  br label %51

40:                                               ; preds = %22
  %41 = load i32, ptr %6, align 4, !tbaa !18
  %42 = sext i32 %41 to i64
  %43 = load ptr, ptr %5, align 8, !tbaa !13
  %44 = getelementptr inbounds nuw %struct.tls_rl_record_st, ptr %43, i32 0, i32 2
  store i64 %42, ptr %44, align 8, !tbaa !82
  br label %45

45:                                               ; preds = %40
  %46 = load ptr, ptr %5, align 8, !tbaa !13
  %47 = getelementptr inbounds nuw %struct.tls_rl_record_st, ptr %46, i32 0, i32 7
  %48 = load ptr, ptr %47, align 8, !tbaa !118
  %49 = load ptr, ptr %5, align 8, !tbaa !13
  %50 = getelementptr inbounds nuw %struct.tls_rl_record_st, ptr %49, i32 0, i32 5
  store ptr %48, ptr %50, align 8, !tbaa !86
  store i32 1, ptr %3, align 4
  store i32 1, ptr %7, align 4
  br label %51

51:                                               ; preds = %45, %39, %21
  call void @llvm.lifetime.end.p0(i64 4, ptr %6) #10
  %52 = load i32, ptr %3, align 4
  ret i32 %52
}

; Function Attrs: nounwind uwtable
define i32 @tls_default_post_process_record(ptr noundef %0, ptr noundef %1) #0 {
  %3 = alloca i32, align 4
  %4 = alloca ptr, align 8
  %5 = alloca ptr, align 8
  store ptr %0, ptr %4, align 8, !tbaa !16
  store ptr %1, ptr %5, align 8, !tbaa !13
  %6 = load ptr, ptr %4, align 8, !tbaa !16
  %7 = getelementptr inbounds nuw %struct.ossl_record_layer_st, ptr %6, i32 0, i32 34
  %8 = load ptr, ptr %7, align 8, !tbaa !117
  %9 = icmp ne ptr %8, null
  br i1 %9, label %10, label %25

10:                                               ; preds = %2
  %11 = load ptr, ptr %5, align 8, !tbaa !13
  %12 = getelementptr inbounds nuw %struct.tls_rl_record_st, ptr %11, i32 0, i32 2
  %13 = load i64, ptr %12, align 8, !tbaa !82
  %14 = icmp ugt i64 %13, 17408
  br i1 %14, label %15, label %17

15:                                               ; preds = %10
  call void @ERR_new()
  call void @ERR_set_debug(ptr noundef @.str, i32 noundef 1068, ptr noundef @__func__.tls_default_post_process_record)
  %16 = load ptr, ptr %4, align 8, !tbaa !16
  call void (ptr, i32, i32, ptr, ...) @ossl_rlayer_fatal(ptr noundef %16, i32 noundef 22, i32 noundef 140, ptr noundef null)
  store i32 0, ptr %3, align 4
  br label %33

17:                                               ; preds = %10
  %18 = load ptr, ptr %4, align 8, !tbaa !16
  %19 = load ptr, ptr %5, align 8, !tbaa !13
  %20 = call i32 @tls_do_uncompress(ptr noundef %18, ptr noundef %19)
  %21 = icmp ne i32 %20, 0
  br i1 %21, label %24, label %22

22:                                               ; preds = %17
  call void @ERR_new()
  call void @ERR_set_debug(ptr noundef @.str, i32 noundef 1073, ptr noundef @__func__.tls_default_post_process_record)
  %23 = load ptr, ptr %4, align 8, !tbaa !16
  call void (ptr, i32, i32, ptr, ...) @ossl_rlayer_fatal(ptr noundef %23, i32 noundef 30, i32 noundef 107, ptr noundef null)
  store i32 0, ptr %3, align 4
  br label %33

24:                                               ; preds = %17
  br label %25

25:                                               ; preds = %24, %2
  %26 = load ptr, ptr %5, align 8, !tbaa !13
  %27 = getelementptr inbounds nuw %struct.tls_rl_record_st, ptr %26, i32 0, i32 2
  %28 = load i64, ptr %27, align 8, !tbaa !82
  %29 = icmp ugt i64 %28, 16384
  br i1 %29, label %30, label %32

30:                                               ; preds = %25
  call void @ERR_new()
  call void @ERR_set_debug(ptr noundef @.str, i32 noundef 1079, ptr noundef @__func__.tls_default_post_process_record)
  %31 = load ptr, ptr %4, align 8, !tbaa !16
  call void (ptr, i32, i32, ptr, ...) @ossl_rlayer_fatal(ptr noundef %31, i32 noundef 22, i32 noundef 146, ptr noundef null)
  store i32 0, ptr %3, align 4
  br label %33

32:                                               ; preds = %25
  store i32 1, ptr %3, align 4
  br label %33

33:                                               ; preds = %32, %30, %22, %15
  %34 = load i32, ptr %3, align 4
  ret i32 %34
}