; Function Attrs: nounwind uwtable
define range(i32 0, 2) i32 @tls_default_post_process_record(ptr noundef captures(none) %0, ptr noundef captures(none) %1) local_unnamed_addr #0 {
  %3 = getelementptr inbounds nuw i8, ptr %0, i64 4160
  %4 = load ptr, ptr %3, align 8, !tbaa !93
  %.not = icmp eq ptr %4, null
  %.phi.trans.insert = getelementptr inbounds nuw i8, ptr %1, i64 8
  %.pre12 = load i64, ptr %.phi.trans.insert, align 8, !tbaa !65
  br i1 %.not, label %._crit_edge, label %5

5:                                                ; preds = %2
  %6 = icmp ugt i64 %.pre12, 17408
  br i1 %6, label %7, label %8

7:                                                ; preds = %5
  tail call void @ERR_new() #13
  tail call void @ERR_set_debug(ptr noundef nonnull @.str, i32 noundef 1068, ptr noundef nonnull @__func__.tls_default_post_process_record) #13
  tail call void (ptr, i32, i32, ptr, ...) @ossl_rlayer_fatal(ptr noundef nonnull %0, i32 noundef 22, i32 noundef 140, ptr noundef null)
  br label %29

8:                                                ; preds = %5
  %9 = getelementptr inbounds nuw i8, ptr %1, i64 48
  %10 = load ptr, ptr %9, align 8, !tbaa !94
  %11 = icmp eq ptr %10, null
  br i1 %11, label %12, label %.thread.i

12:                                               ; preds = %8
  %13 = tail call noalias ptr @CRYPTO_malloc(i64 noundef 17728, ptr noundef nonnull @.str, i32 noundef 1044) #13
  store ptr %13, ptr %9, align 8, !tbaa !94
  %14 = icmp eq ptr %13, null
  br i1 %14, label %25, label %..thread.i_crit_edge

..thread.i_crit_edge:                             ; preds = %12
  %.pre = load ptr, ptr %3, align 8, !tbaa !93
  %.pre11 = load i64, ptr %.phi.trans.insert, align 8, !tbaa !65
  br label %.thread.i

.thread.i:                                        ; preds = %..thread.i_crit_edge, %8
  %15 = phi i64 [ %.pre11, %..thread.i_crit_edge ], [ %.pre12, %8 ]
  %16 = phi ptr [ %.pre, %..thread.i_crit_edge ], [ %4, %8 ]
  %17 = phi ptr [ %13, %..thread.i_crit_edge ], [ %10, %8 ]
  %18 = getelementptr inbounds nuw i8, ptr %1, i64 32
  %19 = load ptr, ptr %18, align 8, !tbaa !69
  %20 = trunc i64 %15 to i32
  %21 = tail call i32 @COMP_expand_block(ptr noundef %16, ptr noundef nonnull %17, i32 noundef 16384, ptr noundef %19, i32 noundef %20) #13
  %22 = icmp slt i32 %21, 0
  br i1 %22, label %25, label %tls_do_uncompress.exit

tls_do_uncompress.exit:                           ; preds = %.thread.i
  %23 = zext nneg i32 %21 to i64
  store i64 %23, ptr %.phi.trans.insert, align 8, !tbaa !65
  %24 = load ptr, ptr %9, align 8, !tbaa !94
  store ptr %24, ptr %18, align 8, !tbaa !69
  br label %._crit_edge

25:                                               ; preds = %12, %.thread.i
  tail call void @ERR_new() #13
  tail call void @ERR_set_debug(ptr noundef nonnull @.str, i32 noundef 1073, ptr noundef nonnull @__func__.tls_default_post_process_record) #13
  tail call void (ptr, i32, i32, ptr, ...) @ossl_rlayer_fatal(ptr noundef nonnull %0, i32 noundef 30, i32 noundef 107, ptr noundef null)
  br label %29

._crit_edge:                                      ; preds = %2, %tls_do_uncompress.exit
  %26 = phi i64 [ %23, %tls_do_uncompress.exit ], [ %.pre12, %2 ]
  %27 = icmp ugt i64 %26, 16384
  br i1 %27, label %28, label %29

28:                                               ; preds = %._crit_edge
  tail call void @ERR_new() #13
  tail call void @ERR_set_debug(ptr noundef nonnull @.str, i32 noundef 1079, ptr noundef nonnull @__func__.tls_default_post_process_record) #13
  tail call void (ptr, i32, i32, ptr, ...) @ossl_rlayer_fatal(ptr noundef nonnull %0, i32 noundef 22, i32 noundef 146, ptr noundef null)
  br label %29

29:                                               ; preds = %._crit_edge, %28, %25, %7
  %.0 = phi i32 [ 0, %7 ], [ 0, %28 ], [ 0, %25 ], [ 1, %._crit_edge ]
  ret i32 %.0
}